#include <math.h>
#include <stdio.h>
#include <stdlib.h>
#include <string.h>

void fy(char c[])
{
    long s=0,i=0,t=1;
    if(c[0]=='-'&&c[1]!='0')
    {printf("-");
    i++;}
    for(i=i;c[i]!='\0'; i++)
    {
        s=s+(c[i]-'0')*t;
        t=t*10;
    }
    printf("%d\n",s);
}

int main()
{
    int k;
    char a[1000];
    for(k=0;k<6;k++)
    {
           scanf("%s",a);
           fy(a);
    }
    return 0;
}
