; ModuleID = '44/1184.c'
source_filename = "44/1184.c"
target datalayout = "e-m:e-p270:32:32-p271:32:32-p272:64:64-i64:64-f80:128-n8:16:32:64-S128"
target triple = "x86_64-pc-linux-gnu"

@.str = private unnamed_addr constant [2 x i8] c"-\00", align 1
@.str.1 = private unnamed_addr constant [4 x i8] c"%d\0A\00", align 1
@.str.2 = private unnamed_addr constant [3 x i8] c"%s\00", align 1

; Function Attrs: noinline nounwind uwtable
define dso_local void @fy(i8* %0) #0 {
  %2 = alloca i8*, align 8
  %3 = alloca i64, align 8
  %4 = alloca i64, align 8
  %5 = alloca i64, align 8
  store i8* %0, i8** %2, align 8
  store i64 0, i64* %3, align 8
  store i64 0, i64* %4, align 8
  store i64 1, i64* %5, align 8
  %6 = load i8*, i8** %2, align 8
  %7 = getelementptr inbounds i8, i8* %6, i64 0
  %8 = load i8, i8* %7, align 1
  %9 = sext i8 %8 to i32
  %10 = icmp eq i32 %9, 45
  br i1 %10, label %11, label %21

11:                                               ; preds = %1
  %12 = load i8*, i8** %2, align 8
  %13 = getelementptr inbounds i8, i8* %12, i64 1
  %14 = load i8, i8* %13, align 1
  %15 = sext i8 %14 to i32
  %16 = icmp ne i32 %15, 48
  br i1 %16, label %17, label %21

17:                                               ; preds = %11
  %18 = call i32 (i8*, ...) @printf(i8* getelementptr inbounds ([2 x i8], [2 x i8]* @.str, i64 0, i64 0))
  %19 = load i64, i64* %4, align 8
  %20 = add nsw i64 %19, 1
  store i64 %20, i64* %4, align 8
  br label %21

21:                                               ; preds = %17, %11, %1
  %22 = load i64, i64* %4, align 8
  store i64 %22, i64* %4, align 8
  br label %23

23:                                               ; preds = %44, %21
  %24 = load i8*, i8** %2, align 8
  %25 = load i64, i64* %4, align 8
  %26 = getelementptr inbounds i8, i8* %24, i64 %25
  %27 = load i8, i8* %26, align 1
  %28 = sext i8 %27 to i32
  %29 = icmp ne i32 %28, 0
  br i1 %29, label %30, label %47

30:                                               ; preds = %23
  %31 = load i64, i64* %3, align 8
  %32 = load i8*, i8** %2, align 8
  %33 = load i64, i64* %4, align 8
  %34 = getelementptr inbounds i8, i8* %32, i64 %33
  %35 = load i8, i8* %34, align 1
  %36 = sext i8 %35 to i32
  %37 = sub nsw i32 %36, 48
  %38 = sext i32 %37 to i64
  %39 = load i64, i64* %5, align 8
  %40 = mul nsw i64 %38, %39
  %41 = add nsw i64 %31, %40
  store i64 %41, i64* %3, align 8
  %42 = load i64, i64* %5, align 8
  %43 = mul nsw i64 %42, 10
  store i64 %43, i64* %5, align 8
  br label %44

44:                                               ; preds = %30
  %45 = load i64, i64* %4, align 8
  %46 = add nsw i64 %45, 1
  store i64 %46, i64* %4, align 8
  br label %23

47:                                               ; preds = %23
  %48 = load i64, i64* %3, align 8
  %49 = call i32 (i8*, ...) @printf(i8* getelementptr inbounds ([4 x i8], [4 x i8]* @.str.1, i64 0, i64 0), i64 %48)
  ret void
}

declare dso_local i32 @printf(i8*, ...) #1

; Function Attrs: noinline nounwind uwtable
define dso_local i32 @main() #0 {
  %1 = alloca i32, align 4
  %2 = alloca i32, align 4
  %3 = alloca [1000 x i8], align 16
  store i32 0, i32* %1, align 4
  store i32 0, i32* %2, align 4
  br label %4

4:                                                ; preds = %11, %0
  %5 = load i32, i32* %2, align 4
  %6 = icmp slt i32 %5, 6
  br i1 %6, label %7, label %14

7:                                                ; preds = %4
  %8 = getelementptr inbounds [1000 x i8], [1000 x i8]* %3, i64 0, i64 0
  %9 = call i32 (i8*, ...) @__isoc99_scanf(i8* getelementptr inbounds ([3 x i8], [3 x i8]* @.str.2, i64 0, i64 0), i8* %8)
  %10 = getelementptr inbounds [1000 x i8], [1000 x i8]* %3, i64 0, i64 0
  call void @fy(i8* %10)
  br label %11

11:                                               ; preds = %7
  %12 = load i32, i32* %2, align 4
  %13 = add nsw i32 %12, 1
  store i32 %13, i32* %2, align 4
  br label %4

14:                                               ; preds = %4
  ret i32 0
}

declare dso_local i32 @__isoc99_scanf(i8*, ...) #1


!llvm.module.flags = !{!0}
!llvm.ident = !{!1}

!0 = !{i32 1, !"wchar_size", i32 4}
!1 = !{!"clang version 10.0.0-4ubuntu1 "}
